target datalayout = "e-m:e-p270:32:32-p271:32:32-p272:64:64-i64:64-i128:128-f80:128-n8:16:32:64-S128"
target triple = "x86_64-pc-linux-gnu"

%"class.cvc5::internal::theory::Valuation" = type { ptr }
%"class.cvc5::internal::theory::quantifiers::QuantifiersState" = type { %"class.cvc5::internal::theory::TheoryState", %"class.cvc5::context::CDO.0", %"class.cvc5::context::CDO", i64, i64, i64, i64, ptr, %"class.cvc5::internal::theory::quantifiers::QuantifiersStatistics" }
%"class.cvc5::internal::theory::TheoryState" = type { %"class.cvc5::internal::EnvObj", %"class.cvc5::internal::theory::Valuation", ptr, %"class.cvc5::context::CDO", %"class.cvc5::context::CDList" }
%"class.cvc5::internal::EnvObj" = type { ptr, ptr }
%"class.cvc5::context::CDList" = type <{ %"class.cvc5::context::ContextObj", %"class.std::vector", i64, i8, [7 x i8] }>
%"class.cvc5::context::ContextObj" = type { ptr, ptr, ptr, ptr, ptr }
%"class.std::vector" = type { %"struct.std::_Vector_base" }
%"struct.std::_Vector_base" = type { %"struct.std::_Vector_base<cvc5::internal::NodeTemplate<false>, std::allocator<cvc5::internal::NodeTemplate<false>>>::_Vector_impl" }
%"struct.std::_Vector_base<cvc5::internal::NodeTemplate<false>, std::allocator<cvc5::internal::NodeTemplate<false>>>::_Vector_impl" = type { %"struct.std::_Vector_base<cvc5::internal::NodeTemplate<false>, std::allocator<cvc5::internal::NodeTemplate<false>>>::_Vector_impl_data" }
%"struct.std::_Vector_base<cvc5::internal::NodeTemplate<false>, std::allocator<cvc5::internal::NodeTemplate<false>>>::_Vector_impl_data" = type { ptr, ptr, ptr }
%"class.cvc5::context::CDO.0" = type { %"class.cvc5::context::ContextObj", i64 }
%"class.cvc5::context::CDO" = type <{ %"class.cvc5::context::ContextObj", i8, [7 x i8] }>
%"class.cvc5::internal::theory::quantifiers::QuantifiersStatistics" = type { %"class.cvc5::internal::TimerStat", %"class.cvc5::internal::TimerStat", %"class.cvc5::internal::TimerStat", %"class.cvc5::internal::IntStat", %"class.cvc5::internal::IntStat", %"class.cvc5::internal::IntStat", %"class.cvc5::internal::IntStat", %"class.cvc5::internal::IntStat", %"class.cvc5::internal::IntStat", %"class.cvc5::internal::IntStat" }
%"class.cvc5::internal::TimerStat" = type { ptr }
%"class.cvc5::internal::IntStat" = type { %"class.cvc5::internal::ValueStat" }
%"class.cvc5::internal::ValueStat" = type { ptr }
%"class.cvc5::context::Scope" = type { ptr, ptr, i32, ptr, %"class.std::vector.436" }
%"class.std::vector.436" = type { %"struct.std::_Vector_base.437" }
%"struct.std::_Vector_base.437" = type { %"struct.std::_Vector_base<cvc5::context::ContextObj *, std::allocator<cvc5::context::ContextObj *>>::_Vector_impl" }
%"struct.std::_Vector_base<cvc5::context::ContextObj *, std::allocator<cvc5::context::ContextObj *>>::_Vector_impl" = type { %"struct.std::_Vector_base<cvc5::context::ContextObj *, std::allocator<cvc5::context::ContextObj *>>::_Vector_impl_data" }
%"struct.std::_Vector_base<cvc5::context::ContextObj *, std::allocator<cvc5::context::ContextObj *>>::_Vector_impl_data" = type { ptr, ptr, ptr }
%"class.cvc5::context::Context" = type { ptr, %"class.std::vector.441", ptr, ptr }
%"class.std::vector.441" = type { %"struct.std::_Vector_base.442" }
%"struct.std::_Vector_base.442" = type { %"struct.std::_Vector_base<cvc5::context::Scope *, std::allocator<cvc5::context::Scope *>>::_Vector_impl" }
%"struct.std::_Vector_base<cvc5::context::Scope *, std::allocator<cvc5::context::Scope *>>::_Vector_impl" = type { %"struct.std::_Vector_base<cvc5::context::Scope *, std::allocator<cvc5::context::Scope *>>::_Vector_impl_data" }
%"struct.std::_Vector_base<cvc5::context::Scope *, std::allocator<cvc5::context::Scope *>>::_Vector_impl_data" = type { ptr, ptr, ptr }
%"class.__gnu_cxx::__normal_iterator.446" = type { ptr }

; Function Attrs: mustprogress nounwind uwtable
define linkonce_odr hidden void @_ZN9__gnu_cxx17__normal_iteratorIPKPN4cvc57context5ScopeESt6vectorIS4_SaIS4_EEEC2ERKS6_(ptr noundef nonnull align 8 dereferenceable(8) %0, ptr noundef nonnull align 8 dereferenceable(8) %1) unnamed_addr #6 comdat align 2 {
  %3 = alloca ptr, align 8
  %4 = alloca ptr, align 8
  store ptr %0, ptr %3, align 8, !tbaa !507
  store ptr %1, ptr %4, align 8, !tbaa !513
  %5 = load ptr, ptr %3, align 8
  %6 = getelementptr inbounds nuw %"class.__gnu_cxx::__normal_iterator.446", ptr %5, i32 0, i32 0
  %7 = load ptr, ptr %4, align 8, !tbaa !513
  %8 = load ptr, ptr %7, align 8, !tbaa !512
  store ptr %8, ptr %6, align 8, !tbaa !509
  ret void
}

; Function Attrs: mustprogress nounwind uwtable
define linkonce_odr hidden noundef nonnull align 8 dereferenceable(8) ptr @_ZNK9__gnu_cxx17__normal_iteratorIPKPN4cvc57context5ScopeESt6vectorIS4_SaIS4_EEEdeEv(ptr noundef nonnull align 8 dereferenceable(8) %0) #6 comdat align 2 {
  %2 = alloca ptr, align 8
  store ptr %0, ptr %2, align 8, !tbaa !507
  %3 = load ptr, ptr %2, align 8
  %4 = getelementptr inbounds nuw %"class.__gnu_cxx::__normal_iterator.446", ptr %3, i32 0, i32 0
  %5 = load ptr, ptr %4, align 8, !tbaa !509
  ret ptr %5
}

; Function Attrs: mustprogress nounwind uwtable
define linkonce_odr hidden ptr @_ZNK9__gnu_cxx17__normal_iteratorIPKPN4cvc57context5ScopeESt6vectorIS4_SaIS4_EEEmiEl(ptr noundef nonnull align 8 dereferenceable(8) %0, i64 noundef %1) #6 comdat align 2 {
  %3 = alloca %"class.__gnu_cxx::__normal_iterator.446", align 8
  %4 = alloca ptr, align 8
  %5 = alloca i64, align 8
  %6 = alloca ptr, align 8
  store ptr %0, ptr %4, align 8, !tbaa !507
  store i64 %1, ptr %5, align 8, !tbaa !284
  %7 = load ptr, ptr %4, align 8
  call void @llvm.lifetime.start.p0(i64 8, ptr %6) #3
  %8 = getelementptr inbounds nuw %"class.__gnu_cxx::__normal_iterator.446", ptr %7, i32 0, i32 0
  %9 = load ptr, ptr %8, align 8, !tbaa !509
  %10 = load i64, ptr %5, align 8, !tbaa !284
  %11 = sub i64 0, %10
  %12 = getelementptr inbounds ptr, ptr %9, i64 %11
  store ptr %12, ptr %6, align 8, !tbaa !512
  call void @_ZN9__gnu_cxx17__normal_iteratorIPKPN4cvc57context5ScopeESt6vectorIS4_SaIS4_EEEC2ERKS6_(ptr noundef nonnull align 8 dereferenceable(8) %3, ptr noundef nonnull align 8 dereferenceable(8) %6) #3
  call void @llvm.lifetime.end.p0(i64 8, ptr %6) #3
  %13 = getelementptr inbounds nuw %"class.__gnu_cxx::__normal_iterator.446", ptr %3, i32 0, i32 0
  %14 = load ptr, ptr %13, align 8
  ret ptr %14
}

; Function Attrs: mustprogress nounwind uwtable
define linkonce_odr hidden ptr @_ZNKSt6vectorIPN4cvc57context5ScopeESaIS3_EE3endEv(ptr noundef nonnull align 8 dereferenceable(24) %0) #6 comdat align 2 {
  %2 = alloca %"class.__gnu_cxx::__normal_iterator.446", align 8
  %3 = alloca ptr, align 8
  store ptr %0, ptr %3, align 8, !tbaa !505
  %4 = load ptr, ptr %3, align 8
  %5 = getelementptr inbounds nuw %"struct.std::_Vector_base.442", ptr %4, i32 0, i32 0
  %6 = getelementptr inbounds nuw %"struct.std::_Vector_base<cvc5::context::Scope *, std::allocator<cvc5::context::Scope *>>::_Vector_impl_data", ptr %5, i32 0, i32 1
  call void @_ZN9__gnu_cxx17__normal_iteratorIPKPN4cvc57context5ScopeESt6vectorIS4_SaIS4_EEEC2ERKS6_(ptr noundef nonnull align 8 dereferenceable(8) %2, ptr noundef nonnull align 8 dereferenceable(8) %6) #3
  %7 = getelementptr inbounds nuw %"class.__gnu_cxx::__normal_iterator.446", ptr %2, i32 0, i32 0
  %8 = load ptr, ptr %7, align 8
  ret ptr %8
}

; Function Attrs: mustprogress nounwind uwtable
define linkonce_odr hidden noundef nonnull align 8 dereferenceable(8) ptr @_ZNKSt6vectorIPN4cvc57context5ScopeESaIS3_EE4backEv(ptr noundef nonnull align 8 dereferenceable(24) %0) #6 comdat align 2 {
  %2 = alloca ptr, align 8
  %3 = alloca %"class.__gnu_cxx::__normal_iterator.446", align 8
  %4 = alloca %"class.__gnu_cxx::__normal_iterator.446", align 8
  store ptr %0, ptr %2, align 8, !tbaa !505
  %5 = load ptr, ptr %2, align 8
  call void @llvm.lifetime.start.p0(i64 8, ptr %3) #3
  call void @llvm.lifetime.start.p0(i64 8, ptr %4) #3
  %6 = call ptr @_ZNKSt6vectorIPN4cvc57context5ScopeESaIS3_EE3endEv(ptr noundef nonnull align 8 dereferenceable(24) %5) #3
  %7 = getelementptr inbounds nuw %"class.__gnu_cxx::__normal_iterator.446", ptr %4, i32 0, i32 0
  store ptr %6, ptr %7, align 8
  %8 = call ptr @_ZNK9__gnu_cxx17__normal_iteratorIPKPN4cvc57context5ScopeESt6vectorIS4_SaIS4_EEEmiEl(ptr noundef nonnull align 8 dereferenceable(8) %4, i64 noundef 1) #3
  %9 = getelementptr inbounds nuw %"class.__gnu_cxx::__normal_iterator.446", ptr %3, i32 0, i32 0
  store ptr %8, ptr %9, align 8
  %10 = call noundef nonnull align 8 dereferenceable(8) ptr @_ZNK9__gnu_cxx17__normal_iteratorIPKPN4cvc57context5ScopeESt6vectorIS4_SaIS4_EEEdeEv(ptr noundef nonnull align 8 dereferenceable(8) %3) #3
  call void @llvm.lifetime.end.p0(i64 8, ptr %4) #3
  call void @llvm.lifetime.end.p0(i64 8, ptr %3) #3
  ret ptr %10
}

; Function Attrs: mustprogress nounwind uwtable
define linkonce_odr hidden noundef ptr @_ZNK4cvc57context7Context11getTopScopeEv(ptr noundef nonnull align 8 dereferenceable(48) %0) #6 comdat align 2 {
  %2 = alloca ptr, align 8
  store ptr %0, ptr %2, align 8, !tbaa !272
  %3 = load ptr, ptr %2, align 8
  %4 = getelementptr inbounds nuw %"class.cvc5::context::Context", ptr %3, i32 0, i32 1
  %5 = call noundef nonnull align 8 dereferenceable(8) ptr @_ZNKSt6vectorIPN4cvc57context5ScopeESaIS3_EE4backEv(ptr noundef nonnull align 8 dereferenceable(24) %4) #3
  %6 = load ptr, ptr %5, align 8, !tbaa !498
  ret ptr %6
}

; Function Attrs: mustprogress uwtable
define linkonce_odr hidden noundef zeroext i1 @_ZNK4cvc57context5Scope9isCurrentEv(ptr noundef nonnull align 8 dereferenceable(56) %0) #4 comdat align 2 {
  %2 = alloca ptr, align 8
  store ptr %0, ptr %2, align 8, !tbaa !498
  %3 = load ptr, ptr %2, align 8
  %4 = getelementptr inbounds nuw %"class.cvc5::context::Scope", ptr %3, i32 0, i32 0
  %5 = load ptr, ptr %4, align 8, !tbaa !499
  %6 = call noundef ptr @_ZNK4cvc57context7Context11getTopScopeEv(ptr noundef nonnull align 8 dereferenceable(48) %5)
  %7 = icmp eq ptr %3, %6
  ret i1 %7
}

; Function Attrs: inlinehint mustprogress uwtable
define linkonce_odr hidden void @_ZN4cvc57context10ContextObj11makeCurrentEv(ptr noundef nonnull align 8 dereferenceable(40) %0) #9 comdat align 2 {
  %2 = alloca ptr, align 8
  store ptr %0, ptr %2, align 8, !tbaa !370
  %3 = load ptr, ptr %2, align 8
  %4 = getelementptr inbounds nuw %"class.cvc5::context::ContextObj", ptr %3, i32 0, i32 1
  %5 = load ptr, ptr %4, align 8, !tbaa !497
  %6 = call noundef zeroext i1 @_ZNK4cvc57context5Scope9isCurrentEv(ptr noundef nonnull align 8 dereferenceable(56) %5)
  br i1 %6, label %8, label %7

7:                                                ; preds = %1
  call void @_ZN4cvc57context10ContextObj6updateEv(ptr noundef nonnull align 8 dereferenceable(40) %3)
  br label %8

8:                                                ; preds = %7, %1
  ret void
}

; Function Attrs: mustprogress uwtable
define linkonce_odr hidden void @_ZN4cvc57context3CDOImE3setERKm(ptr noundef nonnull align 8 dereferenceable(48) %0, ptr noundef nonnull align 8 dereferenceable(8) %1) #4 comdat align 2 {
  %3 = alloca ptr, align 8
  %4 = alloca ptr, align 8
  store ptr %0, ptr %3, align 8, !tbaa !270
  store ptr %1, ptr %4, align 8, !tbaa !278
  %5 = load ptr, ptr %3, align 8
  call void @_ZN4cvc57context10ContextObj11makeCurrentEv(ptr noundef nonnull align 8 dereferenceable(40) %5)
  %6 = load ptr, ptr %4, align 8, !tbaa !278
  %7 = load i64, ptr %6, align 8, !tbaa !284
  %8 = getelementptr inbounds nuw %"class.cvc5::context::CDO.0", ptr %5, i32 0, i32 1
  store i64 %7, ptr %8, align 8, !tbaa !274
  ret void
}

; Function Attrs: mustprogress uwtable
define linkonce_odr hidden noundef nonnull align 8 dereferenceable(48) ptr @_ZN4cvc57context3CDOImEaSERKm(ptr noundef nonnull align 8 dereferenceable(48) %0, ptr noundef nonnull align 8 dereferenceable(8) %1) #4 comdat align 2 {
  %3 = alloca ptr, align 8
  %4 = alloca ptr, align 8
  store ptr %0, ptr %3, align 8, !tbaa !270
  store ptr %1, ptr %4, align 8, !tbaa !278
  %5 = load ptr, ptr %3, align 8
  %6 = load ptr, ptr %4, align 8, !tbaa !278
  call void @_ZN4cvc57context3CDOImE3setERKm(ptr noundef nonnull align 8 dereferenceable(48) %5, ptr noundef nonnull align 8 dereferenceable(8) %6)
  ret ptr %5
}

; Function Attrs: mustprogress nounwind uwtable
define linkonce_odr hidden noundef nonnull align 8 dereferenceable(8) ptr @_ZNK4cvc57context3CDOImE3getEv(ptr noundef nonnull align 8 dereferenceable(48) %0) #6 comdat align 2 {
  %2 = alloca ptr, align 8
  store ptr %0, ptr %2, align 8, !tbaa !270
  %3 = load ptr, ptr %2, align 8
  %4 = getelementptr inbounds nuw %"class.cvc5::context::CDO.0", ptr %3, i32 0, i32 1
  ret ptr %4
}

; Function Attrs: mustprogress uwtable
define hidden void @_ZN4cvc58internal6theory11quantifiers16QuantifiersState26incrementInstRoundCountersENS1_6Theory6EffortE(ptr noundef nonnull align 8 dereferenceable(376) %0, i32 noundef %1) #4 align 2 {
  %3 = alloca ptr, align 8
  %4 = alloca i32, align 4
  %5 = alloca i64, align 8
  store ptr %0, ptr %3, align 8, !tbaa !3
  store i32 %1, ptr %4, align 4, !tbaa !282
  %6 = load ptr, ptr %3, align 8
  %7 = load i32, ptr %4, align 4, !tbaa !282
  %8 = icmp eq i32 %7, 100
  br i1 %8, label %9, label %37

9:                                                ; preds = %2
  %10 = getelementptr inbounds nuw %"class.cvc5::internal::theory::quantifiers::QuantifiersState", ptr %6, i32 0, i32 5
  %11 = load i64, ptr %10, align 8, !tbaa !45
  %12 = getelementptr inbounds nuw %"class.cvc5::internal::theory::quantifiers::QuantifiersState", ptr %6, i32 0, i32 4
  %13 = load i64, ptr %12, align 8, !tbaa !44
  %14 = icmp ne i64 %11, %13
  br i1 %14, label %22, label %15

15:                                               ; preds = %9
  %16 = getelementptr inbounds nuw %"class.cvc5::internal::theory::quantifiers::QuantifiersState", ptr %6, i32 0, i32 3
  %17 = load i64, ptr %16, align 8, !tbaa !17
  %18 = getelementptr inbounds nuw %"class.cvc5::internal::theory::quantifiers::QuantifiersState", ptr %6, i32 0, i32 6
  %19 = load i64, ptr %18, align 8, !tbaa !269
  %20 = urem i64 %17, %19
  %21 = icmp ne i64 %20, 0
  br i1 %21, label %22, label %36

22:                                               ; preds = %15, %9
  %23 = getelementptr inbounds nuw %"class.cvc5::internal::theory::quantifiers::QuantifiersState", ptr %6, i32 0, i32 3
  %24 = load i64, ptr %23, align 8, !tbaa !17
  %25 = add i64 %24, 1
  %26 = getelementptr inbounds nuw %"class.cvc5::internal::theory::quantifiers::QuantifiersState", ptr %6, i32 0, i32 3
  store i64 %25, ptr %26, align 8, !tbaa !17
  %27 = getelementptr inbounds nuw %"class.cvc5::internal::theory::quantifiers::QuantifiersState", ptr %6, i32 0, i32 4
  %28 = load i64, ptr %27, align 8, !tbaa !44
  %29 = getelementptr inbounds nuw %"class.cvc5::internal::theory::quantifiers::QuantifiersState", ptr %6, i32 0, i32 5
  store i64 %28, ptr %29, align 8, !tbaa !45
  call void @llvm.lifetime.start.p0(i64 8, ptr %5) #3
  %30 = getelementptr inbounds nuw %"class.cvc5::internal::theory::quantifiers::QuantifiersState", ptr %6, i32 0, i32 1
  %31 = call noundef nonnull align 8 dereferenceable(8) ptr @_ZNK4cvc57context3CDOImE3getEv(ptr noundef nonnull align 8 dereferenceable(48) %30)
  %32 = load i64, ptr %31, align 8, !tbaa !284
  %33 = add i64 %32, 1
  store i64 %33, ptr %5, align 8, !tbaa !284
  %34 = getelementptr inbounds nuw %"class.cvc5::internal::theory::quantifiers::QuantifiersState", ptr %6, i32 0, i32 1
  %35 = call noundef nonnull align 8 dereferenceable(48) ptr @_ZN4cvc57context3CDOImEaSERKm(ptr noundef nonnull align 8 dereferenceable(48) %34, ptr noundef nonnull align 8 dereferenceable(8) %5)
  call void @llvm.lifetime.end.p0(i64 8, ptr %5) #3
  br label %36

36:                                               ; preds = %22, %15
  br label %46

37:                                               ; preds = %2
  %38 = load i32, ptr %4, align 4, !tbaa !282
  %39 = icmp eq i32 %38, 200
  br i1 %39, label %40, label %45

40:                                               ; preds = %37
  %41 = getelementptr inbounds nuw %"class.cvc5::internal::theory::quantifiers::QuantifiersState", ptr %6, i32 0, i32 4
  %42 = load i64, ptr %41, align 8, !tbaa !44
  %43 = add i64 %42, 1
  %44 = getelementptr inbounds nuw %"class.cvc5::internal::theory::quantifiers::QuantifiersState", ptr %6, i32 0, i32 4
  store i64 %43, ptr %44, align 8, !tbaa !44
  br label %45

45:                                               ; preds = %40, %37
  br label %46

46:                                               ; preds = %45, %36
  ret void
}