; Function Attrs: mustprogress uwtable
define hidden void @_ZN4cvc58internal6theory11quantifiers16QuantifiersState26incrementInstRoundCountersENS1_6Theory6EffortE(ptr noundef nonnull align 8 dereferenceable(376) %0, i32 noundef %1) local_unnamed_addr #3 align 2 {
  switch i32 %1, label %33 [
    i32 100, label %3
    i32 200, label %29
  ]

3:                                                ; preds = %2
  %4 = getelementptr inbounds nuw i8, ptr %0, i64 272
  %5 = load i64, ptr %4, align 8, !tbaa !287
  %6 = getelementptr inbounds nuw i8, ptr %0, i64 264
  %7 = load i64, ptr %6, align 8, !tbaa !288
  %.not = icmp eq i64 %5, %7
  %8 = getelementptr inbounds nuw i8, ptr %0, i64 256
  %9 = load i64, ptr %8, align 8, !tbaa !20
  br i1 %.not, label %10, label %._crit_edge

10:                                               ; preds = %3
  %11 = getelementptr inbounds nuw i8, ptr %0, i64 280
  %12 = load i64, ptr %11, align 8, !tbaa !278
  %13 = urem i64 %9, %12
  %.not2 = icmp eq i64 %13, 0
  br i1 %.not2, label %33, label %._crit_edge

._crit_edge:                                      ; preds = %3, %10
  %14 = getelementptr inbounds nuw i8, ptr %0, i64 256
  %15 = add i64 %9, 1
  store i64 %15, ptr %14, align 8, !tbaa !20
  store i64 %7, ptr %4, align 8, !tbaa !287
  %16 = getelementptr inbounds nuw i8, ptr %0, i64 200
  %17 = load i64, ptr %16, align 8, !tbaa !54
  %18 = add i64 %17, 1
  %19 = getelementptr inbounds nuw i8, ptr %0, i64 168
  %20 = load ptr, ptr %19, align 8, !tbaa !41
  %21 = load ptr, ptr %20, align 8, !tbaa !42
  %22 = getelementptr inbounds nuw i8, ptr %21, i64 16
  %23 = load ptr, ptr %22, align 8, !tbaa !51
  %24 = getelementptr inbounds i8, ptr %23, i64 -8
  %25 = load ptr, ptr %24, align 8, !tbaa !53
  %26 = icmp eq ptr %20, %25
  br i1 %26, label %_ZN4cvc57context3CDOImEaSERKm.exit, label %27

27:                                               ; preds = %._crit_edge
  %28 = getelementptr inbounds nuw i8, ptr %0, i64 160
  tail call void @_ZN4cvc57context10ContextObj6updateEv(ptr noundef nonnull align 8 dereferenceable(48) %28)
  br label %_ZN4cvc57context3CDOImEaSERKm.exit

_ZN4cvc57context3CDOImEaSERKm.exit:               ; preds = %._crit_edge, %27
  store i64 %18, ptr %16, align 8, !tbaa !6
  br label %33

29:                                               ; preds = %2
  %30 = getelementptr inbounds nuw i8, ptr %0, i64 264
  %31 = load i64, ptr %30, align 8, !tbaa !288
  %32 = add i64 %31, 1
  store i64 %32, ptr %30, align 8, !tbaa !288
  br label %33

33:                                               ; preds = %2, %29, %10, %_ZN4cvc57context3CDOImEaSERKm.exit
  ret void
}